(lp0
(lp1
a(lp2
F412.0
aF351.0
aF413.99999999999994
aF349.99999999999994
aF416.0
aF338.0
aF417.0
aF329.0
aF417.0
aF308.0
aF415.00000000000006
aF297.0
aF409.99999999999994
aF288.0
aF391.0
aF273.0
aF378.0
aF269.0
aF355.0
aF266.0
aF343.0
aF266.0
aF339.0
aF266.0
aF336.0
aF270.0
aF335.0
aF272.0
aF334.0
aF286.0
aF334.0
aF298.0
aF336.0
aF312.0
aF357.0
aF342.00000000000006
aF371.0
aF353.0
aF390.0
aF355.0
aF396.0
aF353.0
aF407.0
aF330.0
aF408.0
aF319.00000000000006
aF408.0
aF292.0
aF405.0
aF282.0
aF389.0
aF265.0
aF376.0
aF259.0
aF339.0
aF257.0
aF318.0
aF259.0
aF300.0
aF276.0
aF295.0
aF283.0
aF292.0
aF303.0
aF292.0
aF319.00000000000006
aF293.0
aF329.0
aF299.0
aF336.00000000000006
aF301.0
aF337.0
aF305.0
aF337.0
aF307.0
aF332.0
aF308.0
aF309.0
aF308.0
aF295.0
aF308.0
aF286.0
aF305.0
aF276.0
aF292.0
aF262.0
aF283.0
aF260.0
aF270.0
aF260.0
aF267.0
aF262.0
aF265.0
aF277.0
aF265.0
aF289.99999999999994
aF265.0
aF319.00000000000006
aF265.0
aF334.0
aF275.0
aF355.0
aF286.0
aF361.0
aa(lp3
F312.0
aF322.0
aF314.0
aF294.0
aF314.0
aF286.0
aF311.0
aF273.0
aF305.0
aF269.0
aF297.0
aF266.99999999999994
aF282.0
aF266.0
aF269.0
aF274.0
aF268.0
aF280.0
aF267.0
aF302.00000000000006
aF267.0
aF314.0
aF275.0
aF341.0
aF294.0
aF361.0
aF309.0
aF367.0
aa(lp4
F416.0
aF217.00000000000003
aF386.0
aF214.99999999999997
aF367.0
aF214.99999999999997
aF346.0
aF214.99999999999997
aF342.0
aF214.99999999999997
aF340.0
aF217.00000000000003
aF340.0
aF223.00000000000003
aF346.0
aF249.99999999999997
aF353.0
aF263.0
aF371.0
aF288.0
aF377.0
aF291.0
aF388.0
aF297.0
aa(lp5
F549.0
aF338.99999999999994
aF550.0
aF337.0
aF557.0
aF326.99999999999994
aF567.0
aF303.99999999999994
aF573.0
aF288.0
aF582.0
aF254.0
aF586.0
aF237.99999999999997
aF590.0
aF203.00000000000003
aF590.0
aF191.0
aF590.0
aF162.0
aF584.0
aF150.0
aF579.0
aF142.99999999999997
aF562.0
aF128.00000000000003
aF544.0
aF125.00000000000003
aF536.0
aF125.00000000000003
aF519.0
aF125.00000000000003
aF511.00000000000006
aF125.00000000000003
aF495.0
aF125.00000000000003
aF488.0
aF125.00000000000003
aF482.0
aF125.99999999999997
aF476.99999999999994
aF128.00000000000003
aF476.0
aF133.0
aa(lp6
F170.0
aF378.99999999999994
aF170.0
aF375.0
aF169.0
aF358.0
aF168.0
aF349.0
aF165.0
aF324.0
aF163.0
aF302.00000000000006
aF162.0
aF291.0
aF161.0
aF268.0
aF161.0
aF254.0
aF162.0
aF231.0
aF166.0
aF220.00000000000003
aF173.0
aF211.0
aF188.0
aF197.99999999999997
aF200.0
aF188.99999999999997
aF213.0
aF180.00000000000003
aF241.0
aF167.0
aF258.0
aF164.0
aF286.0
aF160.00000000000003
aF298.0
aF159.0
aF312.0
aF159.0
aF319.0
aF157.99999999999997
aF326.0
aF157.99999999999997
aF327.0
aF157.99999999999997
aa(lp7
F491.0
aF473.0
aa.